target datalayout = "e-m:e-p270:32:32-p271:32:32-p272:64:64-i64:64-i128:128-f80:128-n8:16:32:64-S128"
target triple = "x86_64-pc-linux-gnu"

%"class.doctest::String" = type { %union.anon.7 }
%union.anon.7 = type { %"struct.doctest::String::view", [8 x i8] }
%"struct.doctest::String::view" = type { ptr, i32, i32 }
%"struct.doctest::detail::TestCase" = type { %"struct.doctest::TestCaseData", ptr, %"class.doctest::String", i32, %"class.doctest::String" }
%"struct.doctest::TestCaseData" = type { %"class.doctest::String", i32, ptr, ptr, ptr, i8, i8, i8, i8, i8, i32, double }

@.str.59 = private unnamed_addr constant [2 x i8] c"<\00", align 1
@.str.60 = private unnamed_addr constant [2 x i8] c">\00", align 1
@_ZN7doctest6StringD1Ev = dso_local unnamed_addr alias void (ptr), ptr @_ZN7doctest6StringD2Ev
@_ZN7doctest6StringC1EPKc = dso_local unnamed_addr alias void (ptr, ptr), ptr @_ZN7doctest6StringC2EPKc

; Function Attrs: mustprogress nounwind uwtable
define dso_local void @_ZN7doctest6String7setLastEj(ptr noundef nonnull align 8 dereferenceable(24) %0, i32 noundef %1) #1 align 2 {
  %3 = alloca ptr, align 8
  %4 = alloca i32, align 4
  store ptr %0, ptr %3, align 8, !tbaa !59
  store i32 %1, ptr %4, align 4, !tbaa !4
  %5 = load ptr, ptr %3, align 8
  %6 = load i32, ptr %4, align 4, !tbaa !4
  %7 = trunc i32 %6 to i8
  %8 = getelementptr inbounds nuw %"class.doctest::String", ptr %5, i32 0, i32 0
  %9 = getelementptr inbounds nuw [24 x i8], ptr %8, i64 0, i64 23
  store i8 %7, ptr %9, align 1, !tbaa !55
  ret void
}

; Function Attrs: mustprogress nounwind uwtable
define linkonce_odr dso_local noundef zeroext i1 @_ZNK7doctest6String9isOnStackEv(ptr noundef nonnull align 8 dereferenceable(24) %0) #1 comdat align 2 {
  %2 = alloca ptr, align 8
  store ptr %0, ptr %2, align 8, !tbaa !59
  %3 = load ptr, ptr %2, align 8
  %4 = getelementptr inbounds nuw %"class.doctest::String", ptr %3, i32 0, i32 0
  %5 = getelementptr inbounds nuw [24 x i8], ptr %4, i64 0, i64 23
  %6 = load i8, ptr %5, align 1, !tbaa !55
  %7 = sext i8 %6 to i32
  %8 = and i32 %7, 128
  %9 = icmp eq i32 %8, 0
  ret i1 %9
}

; Function Attrs: mustprogress nounwind uwtable
define linkonce_odr dso_local noundef ptr @_ZN7doctest6String5c_strEv(ptr noundef nonnull align 8 dereferenceable(24) %0) #1 comdat align 2 {
  %2 = alloca ptr, align 8
  %3 = alloca ptr, align 8
  store ptr %0, ptr %3, align 8, !tbaa !59
  %4 = load ptr, ptr %3, align 8
  %5 = call noundef zeroext i1 @_ZNK7doctest6String9isOnStackEv(ptr noundef nonnull align 8 dereferenceable(24) %4) #7
  br i1 %5, label %6, label %9

6:                                                ; preds = %1
  %7 = getelementptr inbounds nuw %"class.doctest::String", ptr %4, i32 0, i32 0
  %8 = getelementptr inbounds [24 x i8], ptr %7, i64 0, i64 0
  store ptr %8, ptr %2, align 8
  br label %13

9:                                                ; preds = %1
  %10 = getelementptr inbounds nuw %"class.doctest::String", ptr %4, i32 0, i32 0
  %11 = getelementptr inbounds nuw %"struct.doctest::String::view", ptr %10, i32 0, i32 0
  %12 = load ptr, ptr %11, align 8, !tbaa !55
  store ptr %12, ptr %2, align 8
  br label %13

13:                                               ; preds = %9, %6
  %14 = load ptr, ptr %2, align 8
  ret ptr %14
}

; Function Attrs: mustprogress nounwind uwtable
define dso_local noundef nonnull align 8 dereferenceable(24) ptr @_ZN7doctest6StringaSEOS0_(ptr noundef nonnull align 8 dereferenceable(24) %0, ptr noundef nonnull align 8 dereferenceable(24) %1) #1 align 2 {
  %3 = alloca ptr, align 8
  %4 = alloca ptr, align 8
  store ptr %0, ptr %3, align 8, !tbaa !59
  store ptr %1, ptr %4, align 8, !tbaa !59
  %5 = load ptr, ptr %3, align 8
  %6 = load ptr, ptr %4, align 8, !tbaa !59
  %7 = icmp ne ptr %5, %6
  br i1 %7, label %8, label %27

8:                                                ; preds = %2
  %9 = call noundef zeroext i1 @_ZNK7doctest6String9isOnStackEv(ptr noundef nonnull align 8 dereferenceable(24) %5) #7
  br i1 %9, label %17, label %10

10:                                               ; preds = %8
  %11 = getelementptr inbounds nuw %"class.doctest::String", ptr %5, i32 0, i32 0
  %12 = getelementptr inbounds nuw %"struct.doctest::String::view", ptr %11, i32 0, i32 0
  %13 = load ptr, ptr %12, align 8, !tbaa !55
  %14 = icmp eq ptr %13, null
  br i1 %14, label %16, label %15

15:                                               ; preds = %10
  call void @_ZdaPv(ptr noundef %13) #31
  br label %16

16:                                               ; preds = %15, %10
  br label %17

17:                                               ; preds = %16, %8
  %18 = getelementptr inbounds nuw %"class.doctest::String", ptr %5, i32 0, i32 0
  %19 = getelementptr inbounds [24 x i8], ptr %18, i64 0, i64 0
  %20 = load ptr, ptr %4, align 8, !tbaa !59
  %21 = getelementptr inbounds nuw %"class.doctest::String", ptr %20, i32 0, i32 0
  %22 = getelementptr inbounds [24 x i8], ptr %21, i64 0, i64 0
  call void @llvm.memcpy.p0.p0.i64(ptr align 8 %19, ptr align 8 %22, i64 24, i1 false)
  %23 = load ptr, ptr %4, align 8, !tbaa !59
  %24 = getelementptr inbounds nuw %"class.doctest::String", ptr %23, i32 0, i32 0
  %25 = getelementptr inbounds [24 x i8], ptr %24, i64 0, i64 0
  store i8 0, ptr %25, align 8, !tbaa !55
  %26 = load ptr, ptr %4, align 8, !tbaa !59
  call void @_ZN7doctest6String7setLastEj(ptr noundef nonnull align 8 dereferenceable(24) %26, i32 noundef 23) #7
  br label %27

27:                                               ; preds = %17, %2
  ret ptr %5
}

; Function Attrs: mustprogress uwtable
define dso_local noundef nonnull align 8 dereferenceable(144) ptr @_ZN7doctest6detail8TestCasemlEPKc(ptr noundef nonnull align 8 dereferenceable(144) %0, ptr noundef %1) #8 align 2 personality ptr @__gxx_personality_v0 {
  %3 = alloca ptr, align 8
  %4 = alloca ptr, align 8
  %5 = alloca %"class.doctest::String", align 8
  %6 = alloca %"class.doctest::String", align 8
  %7 = alloca %"class.doctest::String", align 8
  %8 = alloca %"class.doctest::String", align 8
  %9 = alloca %"class.doctest::String", align 8
  %10 = alloca ptr, align 8
  %11 = alloca i32, align 4
  %12 = alloca %"class.doctest::String", align 8
  store ptr %0, ptr %3, align 8, !tbaa !205
  store ptr %1, ptr %4, align 8, !tbaa !14
  %13 = load ptr, ptr %3, align 8
  %14 = load ptr, ptr %4, align 8, !tbaa !14
  %15 = getelementptr inbounds nuw %"struct.doctest::TestCaseData", ptr %13, i32 0, i32 2
  store ptr %14, ptr %15, align 8, !tbaa !208
  %16 = getelementptr inbounds nuw %"struct.doctest::detail::TestCase", ptr %13, i32 0, i32 3
  %17 = load i32, ptr %16, align 8, !tbaa !220
  %18 = icmp ne i32 %17, -1
  br i1 %18, label %19, label %57

19:                                               ; preds = %2
  call void @llvm.lifetime.start.p0(i64 24, ptr %5) #7
  call void @llvm.lifetime.start.p0(i64 24, ptr %6) #7
  call void @llvm.lifetime.start.p0(i64 24, ptr %7) #7
  call void @llvm.lifetime.start.p0(i64 24, ptr %8) #7
  %20 = getelementptr inbounds nuw %"struct.doctest::TestCaseData", ptr %13, i32 0, i32 2
  %21 = load ptr, ptr %20, align 8, !tbaa !208
  call void @_ZN7doctest6StringC1EPKc(ptr noundef nonnull align 8 dereferenceable(24) %8, ptr noundef %21)
  call void @llvm.lifetime.start.p0(i64 24, ptr %9) #7
  invoke void @_ZN7doctest6StringC1EPKc(ptr noundef nonnull align 8 dereferenceable(24) %9, ptr noundef @.str.59)
          to label %22 unwind label %33

22:                                               ; preds = %19
  invoke void @_ZN7doctestplERKNS_6StringES2_(ptr dead_on_unwind writable sret(%"class.doctest::String") align 8 %7, ptr noundef nonnull align 8 dereferenceable(24) %8, ptr noundef nonnull align 8 dereferenceable(24) %9)
          to label %23 unwind label %37

23:                                               ; preds = %22
  %24 = getelementptr inbounds nuw %"struct.doctest::detail::TestCase", ptr %13, i32 0, i32 2
  invoke void @_ZN7doctestplERKNS_6StringES2_(ptr dead_on_unwind writable sret(%"class.doctest::String") align 8 %6, ptr noundef nonnull align 8 dereferenceable(24) %7, ptr noundef nonnull align 8 dereferenceable(24) %24)
          to label %25 unwind label %41

25:                                               ; preds = %23
  call void @llvm.lifetime.start.p0(i64 24, ptr %12) #7
  invoke void @_ZN7doctest6StringC1EPKc(ptr noundef nonnull align 8 dereferenceable(24) %12, ptr noundef @.str.60)
          to label %26 unwind label %45

26:                                               ; preds = %25
  invoke void @_ZN7doctestplERKNS_6StringES2_(ptr dead_on_unwind writable sret(%"class.doctest::String") align 8 %5, ptr noundef nonnull align 8 dereferenceable(24) %6, ptr noundef nonnull align 8 dereferenceable(24) %12)
          to label %27 unwind label %49

27:                                               ; preds = %26
  %28 = getelementptr inbounds nuw %"struct.doctest::detail::TestCase", ptr %13, i32 0, i32 4
  %29 = call noundef nonnull align 8 dereferenceable(24) ptr @_ZN7doctest6StringaSEOS0_(ptr noundef nonnull align 8 dereferenceable(24) %28, ptr noundef nonnull align 8 dereferenceable(24) %5) #7
  call void @_ZN7doctest6StringD1Ev(ptr noundef nonnull align 8 dereferenceable(24) %5) #7
  call void @_ZN7doctest6StringD1Ev(ptr noundef nonnull align 8 dereferenceable(24) %12) #7
  call void @llvm.lifetime.end.p0(i64 24, ptr %12) #7
  call void @_ZN7doctest6StringD1Ev(ptr noundef nonnull align 8 dereferenceable(24) %6) #7
  call void @_ZN7doctest6StringD1Ev(ptr noundef nonnull align 8 dereferenceable(24) %7) #7
  call void @_ZN7doctest6StringD1Ev(ptr noundef nonnull align 8 dereferenceable(24) %9) #7
  call void @llvm.lifetime.end.p0(i64 24, ptr %9) #7
  call void @_ZN7doctest6StringD1Ev(ptr noundef nonnull align 8 dereferenceable(24) %8) #7
  call void @llvm.lifetime.end.p0(i64 24, ptr %8) #7
  call void @llvm.lifetime.end.p0(i64 24, ptr %7) #7
  call void @llvm.lifetime.end.p0(i64 24, ptr %6) #7
  call void @llvm.lifetime.end.p0(i64 24, ptr %5) #7
  %30 = getelementptr inbounds nuw %"struct.doctest::detail::TestCase", ptr %13, i32 0, i32 4
  %31 = call noundef ptr @_ZN7doctest6String5c_strEv(ptr noundef nonnull align 8 dereferenceable(24) %30)
  %32 = getelementptr inbounds nuw %"struct.doctest::TestCaseData", ptr %13, i32 0, i32 2
  store ptr %31, ptr %32, align 8, !tbaa !208
  br label %57

33:                                               ; preds = %19
  %34 = landingpad { ptr, i32 }
          cleanup
  %35 = extractvalue { ptr, i32 } %34, 0
  store ptr %35, ptr %10, align 8
  %36 = extractvalue { ptr, i32 } %34, 1
  store i32 %36, ptr %11, align 4
  br label %56

37:                                               ; preds = %22
  %38 = landingpad { ptr, i32 }
          cleanup
  %39 = extractvalue { ptr, i32 } %38, 0
  store ptr %39, ptr %10, align 8
  %40 = extractvalue { ptr, i32 } %38, 1
  store i32 %40, ptr %11, align 4
  br label %55

41:                                               ; preds = %23
  %42 = landingpad { ptr, i32 }
          cleanup
  %43 = extractvalue { ptr, i32 } %42, 0
  store ptr %43, ptr %10, align 8
  %44 = extractvalue { ptr, i32 } %42, 1
  store i32 %44, ptr %11, align 4
  br label %54

45:                                               ; preds = %25
  %46 = landingpad { ptr, i32 }
          cleanup
  %47 = extractvalue { ptr, i32 } %46, 0
  store ptr %47, ptr %10, align 8
  %48 = extractvalue { ptr, i32 } %46, 1
  store i32 %48, ptr %11, align 4
  br label %53

49:                                               ; preds = %26
  %50 = landingpad { ptr, i32 }
          cleanup
  %51 = extractvalue { ptr, i32 } %50, 0
  store ptr %51, ptr %10, align 8
  %52 = extractvalue { ptr, i32 } %50, 1
  store i32 %52, ptr %11, align 4
  call void @_ZN7doctest6StringD1Ev(ptr noundef nonnull align 8 dereferenceable(24) %12) #7
  br label %53

53:                                               ; preds = %49, %45
  call void @llvm.lifetime.end.p0(i64 24, ptr %12) #7
  call void @_ZN7doctest6StringD1Ev(ptr noundef nonnull align 8 dereferenceable(24) %6) #7
  br label %54

54:                                               ; preds = %53, %41
  call void @_ZN7doctest6StringD1Ev(ptr noundef nonnull align 8 dereferenceable(24) %7) #7
  br label %55

55:                                               ; preds = %54, %37
  call void @_ZN7doctest6StringD1Ev(ptr noundef nonnull align 8 dereferenceable(24) %9) #7
  br label %56

56:                                               ; preds = %55, %33
  call void @llvm.lifetime.end.p0(i64 24, ptr %9) #7
  call void @_ZN7doctest6StringD1Ev(ptr noundef nonnull align 8 dereferenceable(24) %8) #7
  call void @llvm.lifetime.end.p0(i64 24, ptr %8) #7
  call void @llvm.lifetime.end.p0(i64 24, ptr %7) #7
  call void @llvm.lifetime.end.p0(i64 24, ptr %6) #7
  call void @llvm.lifetime.end.p0(i64 24, ptr %5) #7
  br label %58

57:                                               ; preds = %27, %2
  ret ptr %13

58:                                               ; preds = %56
  %59 = load ptr, ptr %10, align 8
  %60 = load i32, ptr %11, align 4
  %61 = insertvalue { ptr, i32 } poison, ptr %59, 0
  %62 = insertvalue { ptr, i32 } %61, i32 %60, 1
  resume { ptr, i32 } %62
}