; Function Attrs: mustprogress uwtable
define dso_local noundef nonnull align 8 dereferenceable(144) ptr @_ZN7doctest6detail8TestCasemlEPKc(ptr noundef nonnull returned align 8 dereferenceable(144) initializes((32, 40)) %0, ptr noundef %1) local_unnamed_addr #8 align 2 personality ptr @__gxx_personality_v0 {
  %3 = alloca %"class.doctest::String", align 8
  %4 = alloca %"class.doctest::String", align 8
  %5 = alloca %"class.doctest::String", align 8
  %6 = alloca %"class.doctest::String", align 8
  %7 = alloca %"class.doctest::String", align 8
  %8 = alloca %"class.doctest::String", align 8
  %9 = getelementptr inbounds nuw i8, ptr %0, i64 32
  store ptr %1, ptr %9, align 8, !tbaa !206
  %10 = getelementptr inbounds nuw i8, ptr %0, i64 112
  %11 = load i32, ptr %10, align 8, !tbaa !226
  %.not = icmp eq i32 %11, -1
  br i1 %.not, label %97, label %12

12:                                               ; preds = %2
  call void @llvm.lifetime.start.p0(i64 24, ptr nonnull %3) #49
  call void @llvm.lifetime.start.p0(i64 24, ptr nonnull %4) #49
  call void @llvm.lifetime.start.p0(i64 24, ptr nonnull %5) #49
  call void @llvm.lifetime.start.p0(i64 24, ptr nonnull %6) #49
  %13 = tail call i64 @strlen(ptr noundef nonnull readonly dereferenceable(1) %1) #52
  %14 = trunc i64 %13 to i32
  %15 = icmp ult i32 %14, 24
  br i1 %15, label %16, label %22

16:                                               ; preds = %12
  %17 = and i64 %13, 31
  %18 = getelementptr inbounds nuw [24 x i8], ptr %6, i64 0, i64 %17
  store i8 0, ptr %18, align 1, !tbaa !38
  %19 = trunc i64 %13 to i8
  %20 = sub nuw nsw i8 23, %19
  %21 = getelementptr inbounds nuw i8, ptr %6, i64 23
  store i8 %20, ptr %21, align 1, !tbaa !38
  br label %_ZN7doctest6StringC2EPKc.exit

22:                                               ; preds = %12
  %23 = getelementptr inbounds nuw i8, ptr %6, i64 23
  store i8 -128, ptr %23, align 1, !tbaa !38
  %24 = getelementptr inbounds nuw i8, ptr %6, i64 8
  store i32 %14, ptr %24, align 8, !tbaa !38
  %25 = add i32 %14, 1
  %26 = getelementptr inbounds nuw i8, ptr %6, i64 12
  store i32 %25, ptr %26, align 4, !tbaa !38
  %27 = zext i32 %25 to i64
  %28 = tail call noalias noundef nonnull ptr @_Znam(i64 noundef %27) #51
  store ptr %28, ptr %6, align 8, !tbaa !38
  %29 = and i64 %13, 4294967295
  %30 = getelementptr inbounds nuw i8, ptr %28, i64 %29
  store i8 0, ptr %30, align 1, !tbaa !38
  br label %_ZN7doctest6StringC2EPKc.exit

_ZN7doctest6StringC2EPKc.exit:                    ; preds = %16, %22
  %.pre-phi.i.i = phi i64 [ %17, %16 ], [ %29, %22 ]
  %.0.i.i.i = phi ptr [ %6, %16 ], [ %28, %22 ]
  call void @llvm.memcpy.p0.p0.i64(ptr nonnull align 1 %.0.i.i.i, ptr nonnull readonly align 1 %1, i64 %.pre-phi.i.i, i1 false)
  call void @llvm.lifetime.start.p0(i64 24, ptr nonnull %7) #49
  %31 = getelementptr inbounds nuw i8, ptr %7, i64 1
  store i8 0, ptr %31, align 1, !tbaa !38
  %32 = getelementptr inbounds nuw i8, ptr %7, i64 23
  store i8 22, ptr %32, align 1, !tbaa !38
  store i8 60, ptr %7, align 8
  invoke void @_ZN7doctestplERKNS_6StringES2_(ptr dead_on_unwind nonnull writable sret(%"class.doctest::String") align 8 %5, ptr noundef nonnull align 8 dereferenceable(24) %6, ptr noundef nonnull align 8 dereferenceable(24) %7)
          to label %33 unwind label %71

33:                                               ; preds = %_ZN7doctest6StringC2EPKc.exit
  %34 = getelementptr inbounds nuw i8, ptr %0, i64 88
  invoke void @_ZN7doctestplERKNS_6StringES2_(ptr dead_on_unwind nonnull writable sret(%"class.doctest::String") align 8 %4, ptr noundef nonnull align 8 dereferenceable(24) %5, ptr noundef nonnull align 8 dereferenceable(24) %34)
          to label %35 unwind label %73

35:                                               ; preds = %33
  call void @llvm.lifetime.start.p0(i64 24, ptr nonnull %8) #49
  %36 = getelementptr inbounds nuw i8, ptr %8, i64 1
  store i8 0, ptr %36, align 1, !tbaa !38
  %37 = getelementptr inbounds nuw i8, ptr %8, i64 23
  store i8 22, ptr %37, align 1, !tbaa !38
  store i8 62, ptr %8, align 8
  invoke void @_ZN7doctestplERKNS_6StringES2_(ptr dead_on_unwind nonnull writable sret(%"class.doctest::String") align 8 %3, ptr noundef nonnull align 8 dereferenceable(24) %4, ptr noundef nonnull align 8 dereferenceable(24) %8)
          to label %38 unwind label %_ZN7doctest6StringD2Ev.exit23

38:                                               ; preds = %35
  %39 = getelementptr inbounds nuw i8, ptr %0, i64 120
  %40 = getelementptr inbounds nuw i8, ptr %0, i64 143
  %41 = load i8, ptr %40, align 1, !tbaa !38
  %42 = icmp sgt i8 %41, -1
  br i1 %42, label %_ZN7doctest6StringD2Ev.exit18, label %43

43:                                               ; preds = %38
  %44 = load ptr, ptr %39, align 8, !tbaa !38
  %45 = icmp eq ptr %44, null
  br i1 %45, label %_ZN7doctest6StringD2Ev.exit18, label %46

46:                                               ; preds = %43
  tail call void @_ZdaPv(ptr noundef nonnull %44) #48
  br label %_ZN7doctest6StringD2Ev.exit18

_ZN7doctest6StringD2Ev.exit18:                    ; preds = %46, %43, %38
  call void @llvm.memcpy.p0.p0.i64(ptr noundef nonnull align 8 dereferenceable(24) %39, ptr noundef nonnull align 8 dereferenceable(24) %3, i64 24, i1 false)
  call void @llvm.lifetime.end.p0(i64 24, ptr nonnull %8) #49
  %47 = getelementptr inbounds nuw i8, ptr %4, i64 23
  %48 = load i8, ptr %47, align 1, !tbaa !38
  %49 = icmp sgt i8 %48, -1
  br i1 %49, label %_ZN7doctest6StringD2Ev.exit19, label %50

50:                                               ; preds = %_ZN7doctest6StringD2Ev.exit18
  %51 = load ptr, ptr %4, align 8, !tbaa !38
  %52 = icmp eq ptr %51, null
  br i1 %52, label %_ZN7doctest6StringD2Ev.exit19, label %53

53:                                               ; preds = %50
  tail call void @_ZdaPv(ptr noundef nonnull %51) #48
  br label %_ZN7doctest6StringD2Ev.exit19

_ZN7doctest6StringD2Ev.exit19:                    ; preds = %_ZN7doctest6StringD2Ev.exit18, %50, %53
  %54 = getelementptr inbounds nuw i8, ptr %5, i64 23
  %55 = load i8, ptr %54, align 1, !tbaa !38
  %56 = icmp sgt i8 %55, -1
  br i1 %56, label %_ZN7doctest6StringD2Ev.exit21, label %57

57:                                               ; preds = %_ZN7doctest6StringD2Ev.exit19
  %58 = load ptr, ptr %5, align 8, !tbaa !38
  %59 = icmp eq ptr %58, null
  br i1 %59, label %_ZN7doctest6StringD2Ev.exit21, label %60

60:                                               ; preds = %57
  tail call void @_ZdaPv(ptr noundef nonnull %58) #48
  br label %_ZN7doctest6StringD2Ev.exit21

_ZN7doctest6StringD2Ev.exit21:                    ; preds = %60, %57, %_ZN7doctest6StringD2Ev.exit19
  call void @llvm.lifetime.end.p0(i64 24, ptr nonnull %7) #49
  %61 = getelementptr inbounds nuw i8, ptr %6, i64 23
  %62 = load i8, ptr %61, align 1, !tbaa !38
  %63 = icmp sgt i8 %62, -1
  br i1 %63, label %_ZN7doctest6StringD2Ev.exit22, label %64

64:                                               ; preds = %_ZN7doctest6StringD2Ev.exit21
  %65 = load ptr, ptr %6, align 8, !tbaa !38
  %66 = icmp eq ptr %65, null
  br i1 %66, label %_ZN7doctest6StringD2Ev.exit22, label %67

67:                                               ; preds = %64
  tail call void @_ZdaPv(ptr noundef nonnull %65) #48
  br label %_ZN7doctest6StringD2Ev.exit22

_ZN7doctest6StringD2Ev.exit22:                    ; preds = %_ZN7doctest6StringD2Ev.exit21, %64, %67
  call void @llvm.lifetime.end.p0(i64 24, ptr nonnull %6) #49
  call void @llvm.lifetime.end.p0(i64 24, ptr nonnull %5) #49
  call void @llvm.lifetime.end.p0(i64 24, ptr nonnull %4) #49
  call void @llvm.lifetime.end.p0(i64 24, ptr nonnull %3) #49
  %68 = load i8, ptr %40, align 1, !tbaa !38
  %69 = load ptr, ptr %39, align 8
  %70 = icmp slt i8 %68, 0
  %.0.i = select i1 %70, ptr %69, ptr %39
  store ptr %.0.i, ptr %9, align 8, !tbaa !206
  br label %97

71:                                               ; preds = %_ZN7doctest6StringC2EPKc.exit
  %72 = landingpad { ptr, i32 }
          cleanup
  br label %_ZN7doctest6StringD2Ev.exit26

73:                                               ; preds = %33
  %74 = landingpad { ptr, i32 }
          cleanup
  br label %_ZN7doctest6StringD2Ev.exit24

_ZN7doctest6StringD2Ev.exit23:                    ; preds = %35
  %75 = landingpad { ptr, i32 }
          cleanup
  call void @llvm.lifetime.end.p0(i64 24, ptr nonnull %8) #49
  %76 = getelementptr inbounds nuw i8, ptr %4, i64 23
  %77 = load i8, ptr %76, align 1, !tbaa !38
  %78 = icmp sgt i8 %77, -1
  br i1 %78, label %_ZN7doctest6StringD2Ev.exit24, label %79

79:                                               ; preds = %_ZN7doctest6StringD2Ev.exit23
  %80 = load ptr, ptr %4, align 8, !tbaa !38
  %81 = icmp eq ptr %80, null
  br i1 %81, label %_ZN7doctest6StringD2Ev.exit24, label %82

82:                                               ; preds = %79
  tail call void @_ZdaPv(ptr noundef nonnull %80) #48
  br label %_ZN7doctest6StringD2Ev.exit24

_ZN7doctest6StringD2Ev.exit24:                    ; preds = %82, %79, %_ZN7doctest6StringD2Ev.exit23, %73
  %.pn.pn = phi { ptr, i32 } [ %74, %73 ], [ %75, %_ZN7doctest6StringD2Ev.exit23 ], [ %75, %79 ], [ %75, %82 ]
  %83 = getelementptr inbounds nuw i8, ptr %5, i64 23
  %84 = load i8, ptr %83, align 1, !tbaa !38
  %85 = icmp sgt i8 %84, -1
  br i1 %85, label %_ZN7doctest6StringD2Ev.exit26, label %86

86:                                               ; preds = %_ZN7doctest6StringD2Ev.exit24
  %87 = load ptr, ptr %5, align 8, !tbaa !38
  %88 = icmp eq ptr %87, null
  br i1 %88, label %_ZN7doctest6StringD2Ev.exit26, label %89

89:                                               ; preds = %86
  tail call void @_ZdaPv(ptr noundef nonnull %87) #48
  br label %_ZN7doctest6StringD2Ev.exit26

_ZN7doctest6StringD2Ev.exit26:                    ; preds = %71, %_ZN7doctest6StringD2Ev.exit24, %86, %89
  %.pn.pn.pn = phi { ptr, i32 } [ %72, %71 ], [ %.pn.pn, %_ZN7doctest6StringD2Ev.exit24 ], [ %.pn.pn, %86 ], [ %.pn.pn, %89 ]
  call void @llvm.lifetime.end.p0(i64 24, ptr nonnull %7) #49
  %90 = getelementptr inbounds nuw i8, ptr %6, i64 23
  %91 = load i8, ptr %90, align 1, !tbaa !38
  %92 = icmp sgt i8 %91, -1
  br i1 %92, label %_ZN7doctest6StringD2Ev.exit27, label %93

93:                                               ; preds = %_ZN7doctest6StringD2Ev.exit26
  %94 = load ptr, ptr %6, align 8, !tbaa !38
  %95 = icmp eq ptr %94, null
  br i1 %95, label %_ZN7doctest6StringD2Ev.exit27, label %96

96:                                               ; preds = %93
  tail call void @_ZdaPv(ptr noundef nonnull %94) #48
  br label %_ZN7doctest6StringD2Ev.exit27

_ZN7doctest6StringD2Ev.exit27:                    ; preds = %_ZN7doctest6StringD2Ev.exit26, %93, %96
  call void @llvm.lifetime.end.p0(i64 24, ptr nonnull %6) #49
  call void @llvm.lifetime.end.p0(i64 24, ptr nonnull %5) #49
  call void @llvm.lifetime.end.p0(i64 24, ptr nonnull %4) #49
  call void @llvm.lifetime.end.p0(i64 24, ptr nonnull %3) #49
  resume { ptr, i32 } %.pn.pn.pn

97:                                               ; preds = %_ZN7doctest6StringD2Ev.exit22, %2
  ret ptr %0
}